target datalayout = "e-m:e-p270:32:32-p271:32:32-p272:64:64-i64:64-i128:128-f80:128-n8:16:32:64-S128"
target triple = "x86_64-pc-linux-gnu"

%struct.blake3_hasher = type { [8 x i32], %struct.blake3_chunk_state, i8, [1760 x i8] }
%struct.blake3_chunk_state = type { [8 x i32], i64, [64 x i8], i8, i8, i8 }

@IV = internal constant [8 x i32] [i32 1779033703, i32 -1150833019, i32 1013904242, i32 -1521486534, i32 1359893119, i32 -1694144372, i32 528734635, i32 1541459225], align 16

; Function Attrs: alwaysinline nounwind uwtable
define internal void @chunk_state_init(ptr noundef %0, ptr noundef %1, i8 noundef zeroext %2) #1 {
  %4 = alloca ptr, align 8
  %5 = alloca ptr, align 8
  %6 = alloca i8, align 1
  store ptr %0, ptr %4, align 8, !tbaa !4
  store ptr %1, ptr %5, align 8, !tbaa !8
  store i8 %2, ptr %6, align 1, !tbaa !10
  %7 = load ptr, ptr %4, align 8, !tbaa !4
  %8 = getelementptr inbounds nuw %struct.blake3_chunk_state, ptr %7, i32 0, i32 0
  %9 = getelementptr inbounds [8 x i32], ptr %8, i64 0, i64 0
  %10 = load ptr, ptr %5, align 8, !tbaa !8
  call void @llvm.memcpy.p0.p0.i64(ptr align 8 %9, ptr align 4 %10, i64 32, i1 false)
  %11 = load ptr, ptr %4, align 8, !tbaa !4
  %12 = getelementptr inbounds nuw %struct.blake3_chunk_state, ptr %11, i32 0, i32 1
  store i64 0, ptr %12, align 8, !tbaa !24
  %13 = load ptr, ptr %4, align 8, !tbaa !4
  %14 = getelementptr inbounds nuw %struct.blake3_chunk_state, ptr %13, i32 0, i32 2
  %15 = getelementptr inbounds [64 x i8], ptr %14, i64 0, i64 0
  call void @llvm.memset.p0.i64(ptr align 8 %15, i8 0, i64 64, i1 false)
  %16 = load ptr, ptr %4, align 8, !tbaa !4
  %17 = getelementptr inbounds nuw %struct.blake3_chunk_state, ptr %16, i32 0, i32 3
  store i8 0, ptr %17, align 8, !tbaa !27
  %18 = load ptr, ptr %4, align 8, !tbaa !4
  %19 = getelementptr inbounds nuw %struct.blake3_chunk_state, ptr %18, i32 0, i32 4
  store i8 0, ptr %19, align 1, !tbaa !26
  %20 = load i8, ptr %6, align 1, !tbaa !10
  %21 = load ptr, ptr %4, align 8, !tbaa !4
  %22 = getelementptr inbounds nuw %struct.blake3_chunk_state, ptr %21, i32 0, i32 5
  store i8 %20, ptr %22, align 2, !tbaa !28
  ret void
}

; Function Attrs: alwaysinline nounwind uwtable
define internal void @hasher_init_base(ptr noundef %0, ptr noundef %1, i8 noundef zeroext %2) #1 {
  %4 = alloca ptr, align 8
  %5 = alloca ptr, align 8
  %6 = alloca i8, align 1
  store ptr %0, ptr %4, align 8, !tbaa !4
  store ptr %1, ptr %5, align 8, !tbaa !8
  store i8 %2, ptr %6, align 1, !tbaa !10
  %7 = load ptr, ptr %4, align 8, !tbaa !4
  %8 = getelementptr inbounds nuw %struct.blake3_hasher, ptr %7, i32 0, i32 0
  %9 = getelementptr inbounds [8 x i32], ptr %8, i64 0, i64 0
  %10 = load ptr, ptr %5, align 8, !tbaa !8
  call void @llvm.memcpy.p0.p0.i64(ptr align 8 %9, ptr align 4 %10, i64 32, i1 false)
  %11 = load ptr, ptr %4, align 8, !tbaa !4
  %12 = getelementptr inbounds nuw %struct.blake3_hasher, ptr %11, i32 0, i32 1
  %13 = load ptr, ptr %5, align 8, !tbaa !8
  %14 = load i8, ptr %6, align 1, !tbaa !10
  call void @chunk_state_init(ptr noundef %12, ptr noundef %13, i8 noundef zeroext %14)
  %15 = load ptr, ptr %4, align 8, !tbaa !4
  %16 = getelementptr inbounds nuw %struct.blake3_hasher, ptr %15, i32 0, i32 2
  store i8 0, ptr %16, align 8, !tbaa !11
  ret void
}

; Function Attrs: nounwind uwtable
define dso_local void @blake3_hasher_init(ptr noundef %0) #0 {
  %2 = alloca ptr, align 8
  store ptr %0, ptr %2, align 8, !tbaa !4
  %3 = load ptr, ptr %2, align 8, !tbaa !4
  call void @hasher_init_base(ptr noundef %3, ptr noundef @IV, i8 noundef zeroext 0)
  ret void
}